; Function Attrs: mustprogress uwtable
define void @_ZN5boost6fibers7context4joinEv(ptr noundef nonnull align 8 dereferenceable(232) %0) local_unnamed_addr #12 align 2 personality ptr @__gxx_personality_v0 {
  %2 = alloca %"class.std::unique_lock", align 8
  %.b.i = load i1, ptr @_ZGVZN5boost6fibers7context6activeEvE15ctx_initializer, align 1
  br i1 %.b.i, label %_ZN5boost6fibers7context6activeEv.exit, label %3, !prof !12

3:                                                ; preds = %1
  %4 = tail call align 8 ptr @llvm.threadlocal.address.p0(ptr align 8 @_ZN5boost6fibers19context_initializer8counter_E)
  %5 = load i64, ptr %4, align 8, !tbaa !3
  %6 = add i64 %5, 1
  store i64 %6, ptr %4, align 8, !tbaa !3
  %7 = icmp eq i64 %5, 0
  br i1 %7, label %8, label %_ZN5boost6fibers19context_initializerC2IJEEEDpOT_.exit.i

8:                                                ; preds = %3
  invoke void @_ZN5boost6fibers19context_initializer10initializeEv(ptr noundef nonnull align 1 dereferenceable(1) @_ZZN5boost6fibers7context6activeEvE15ctx_initializer)
          to label %_ZN5boost6fibers19context_initializerC2IJEEEDpOT_.exit.i unwind label %10

_ZN5boost6fibers19context_initializerC2IJEEEDpOT_.exit.i: ; preds = %8, %3
  %9 = tail call i32 @__cxa_thread_atexit(ptr nonnull @_ZN5boost6fibers19context_initializerD2Ev, ptr nonnull @_ZZN5boost6fibers7context6activeEvE15ctx_initializer, ptr nonnull @__dso_handle) #8
  store i1 true, ptr @_ZGVZN5boost6fibers7context6activeEvE15ctx_initializer, align 1
  br label %_ZN5boost6fibers7context6activeEv.exit

10:                                               ; preds = %8
  %11 = landingpad { ptr, i32 }
          catch ptr null
  %12 = extractvalue { ptr, i32 } %11, 0
  tail call void @__clang_call_terminate(ptr %12) #32
  unreachable

_ZN5boost6fibers7context6activeEv.exit:           ; preds = %1, %_ZN5boost6fibers19context_initializerC2IJEEEDpOT_.exit.i
  %13 = tail call align 8 ptr @llvm.threadlocal.address.p0(ptr align 8 @_ZN5boost6fibers19context_initializer7active_E)
  %14 = load ptr, ptr %13, align 8, !tbaa !13
  call void @llvm.lifetime.start.p0(i64 16, ptr nonnull %2) #8
  %15 = getelementptr inbounds nuw i8, ptr %0, i64 24
  store ptr %15, ptr %2, align 8, !tbaa !65
  %16 = getelementptr inbounds nuw i8, ptr %2, i64 8
  tail call void @_ZN5boost6fibers6detail13spinlock_ttas4lockEv(ptr noundef nonnull align 4 dereferenceable(4) %15) #8
  store i8 1, ptr %16, align 8, !tbaa !67
  %17 = getelementptr inbounds nuw i8, ptr %0, i64 28
  %18 = load i8, ptr %17, align 4, !tbaa !68, !range !69, !noundef !70
  %19 = trunc nuw i8 %18 to i1
  br i1 %19, label %.thread, label %20

20:                                               ; preds = %_ZN5boost6fibers7context6activeEv.exit
  %21 = getelementptr inbounds nuw i8, ptr %0, i64 32
  invoke void @_ZN5boost6fibers10wait_queue16suspend_and_waitERSt11unique_lockINS0_6detail13spinlock_ttasEEPNS0_7contextE(ptr noundef nonnull align 8 dereferenceable(16) %21, ptr noundef nonnull align 8 dereferenceable(9) %2, ptr noundef %14)
          to label %29 unwind label %22

22:                                               ; preds = %20
  %23 = landingpad { ptr, i32 }
          cleanup
  %24 = load i8, ptr %16, align 8, !tbaa !67, !range !69, !noundef !70
  %25 = trunc nuw i8 %24 to i1
  br i1 %25, label %26, label %_ZNSt11unique_lockIN5boost6fibers6detail13spinlock_ttasEED2Ev.exit

26:                                               ; preds = %22
  %27 = load ptr, ptr %2, align 8, !tbaa !65
  %.not.i.i = icmp eq ptr %27, null
  br i1 %.not.i.i, label %_ZNSt11unique_lockIN5boost6fibers6detail13spinlock_ttasEED2Ev.exit, label %28

28:                                               ; preds = %26
  store atomic i32 1, ptr %27 release, align 4
  br label %_ZNSt11unique_lockIN5boost6fibers6detail13spinlock_ttasEED2Ev.exit

_ZNSt11unique_lockIN5boost6fibers6detail13spinlock_ttasEED2Ev.exit: ; preds = %22, %26, %28
  call void @llvm.lifetime.end.p0(i64 16, ptr nonnull %2) #8
  resume { ptr, i32 } %23

29:                                               ; preds = %20
  %.pre = load i8, ptr %16, align 8, !tbaa !67, !range !69
  %30 = trunc nuw i8 %.pre to i1
  br i1 %30, label %.thread, label %_ZNSt11unique_lockIN5boost6fibers6detail13spinlock_ttasEED2Ev.exit4

.thread:                                          ; preds = %_ZN5boost6fibers7context6activeEv.exit, %29
  %31 = load ptr, ptr %2, align 8, !tbaa !65
  %.not.i.i3 = icmp eq ptr %31, null
  br i1 %.not.i.i3, label %_ZNSt11unique_lockIN5boost6fibers6detail13spinlock_ttasEED2Ev.exit4, label %32

32:                                               ; preds = %.thread
  store atomic i32 1, ptr %31 release, align 4
  br label %_ZNSt11unique_lockIN5boost6fibers6detail13spinlock_ttasEED2Ev.exit4

_ZNSt11unique_lockIN5boost6fibers6detail13spinlock_ttasEED2Ev.exit4: ; preds = %29, %.thread, %32
  call void @llvm.lifetime.end.p0(i64 16, ptr nonnull %2) #8
  ret void
}